; ModuleID = '16/554.c'
source_filename = "16/554.c"
target datalayout = "e-m:e-p270:32:32-p271:32:32-p272:64:64-i64:64-f80:128-n8:16:32:64-S128"
target triple = "x86_64-pc-linux-gnu"

@.str = private unnamed_addr constant [3 x i8] c"%d\00", align 1
@.str.1 = private unnamed_addr constant [4 x i8] c"%d\0A\00", align 1
@.str.2 = private unnamed_addr constant [6 x i8] c"%02d\0A\00", align 1
@.str.3 = private unnamed_addr constant [6 x i8] c"%03d\0A\00", align 1
@.str.4 = private unnamed_addr constant [6 x i8] c"%04d\0A\00", align 1
@.str.5 = private unnamed_addr constant [6 x i8] c"%05d\0A\00", align 1

; Function Attrs: noinline nounwind uwtable
define dso_local i32 @main() #0 {
  %1 = alloca i32, align 4
  %2 = alloca i32, align 4
  %3 = alloca i32, align 4
  %4 = alloca i32, align 4
  %5 = alloca i32, align 4
  %6 = alloca i32, align 4
  %7 = alloca i32, align 4
  %8 = alloca i32, align 4
  store i32 0, i32* %1, align 4
  %9 = call i32 (i8*, ...) @__isoc99_scanf(i8* getelementptr inbounds ([3 x i8], [3 x i8]* @.str, i64 0, i64 0), i32* %2)
  %10 = load i32, i32* %2, align 4
  %11 = srem i32 %10, 10
  store i32 %11, i32* %3, align 4
  %12 = load i32, i32* %2, align 4
  %13 = sdiv i32 %12, 10
  %14 = srem i32 %13, 10
  store i32 %14, i32* %4, align 4
  %15 = load i32, i32* %2, align 4
  %16 = sdiv i32 %15, 100
  %17 = srem i32 %16, 10
  store i32 %17, i32* %5, align 4
  %18 = load i32, i32* %2, align 4
  %19 = sdiv i32 %18, 1000
  %20 = srem i32 %19, 10
  store i32 %20, i32* %6, align 4
  %21 = load i32, i32* %2, align 4
  %22 = sdiv i32 %21, 10000
  %23 = srem i32 %22, 10
  store i32 %23, i32* %7, align 4
  %24 = load i32, i32* %7, align 4
  %25 = icmp eq i32 %24, 0
  br i1 %25, label %26, label %72

26:                                               ; preds = %0
  %27 = load i32, i32* %6, align 4
  %28 = icmp eq i32 %27, 0
  br i1 %28, label %29, label %58

29:                                               ; preds = %26
  %30 = load i32, i32* %5, align 4
  %31 = icmp eq i32 %30, 0
  br i1 %31, label %32, label %47

32:                                               ; preds = %29
  %33 = load i32, i32* %4, align 4
  %34 = icmp eq i32 %33, 0
  br i1 %34, label %35, label %39

35:                                               ; preds = %32
  %36 = load i32, i32* %3, align 4
  store i32 %36, i32* %8, align 4
  %37 = load i32, i32* %8, align 4
  %38 = call i32 (i8*, ...) @printf(i8* getelementptr inbounds ([4 x i8], [4 x i8]* @.str.1, i64 0, i64 0), i32 %37)
  br label %46

39:                                               ; preds = %32
  %40 = load i32, i32* %3, align 4
  %41 = mul nsw i32 %40, 10
  %42 = load i32, i32* %4, align 4
  %43 = add nsw i32 %41, %42
  store i32 %43, i32* %8, align 4
  %44 = load i32, i32* %8, align 4
  %45 = call i32 (i8*, ...) @printf(i8* getelementptr inbounds ([6 x i8], [6 x i8]* @.str.2, i64 0, i64 0), i32 %44)
  br label %46

46:                                               ; preds = %39, %35
  br label %57

47:                                               ; preds = %29
  %48 = load i32, i32* %3, align 4
  %49 = mul nsw i32 %48, 100
  %50 = load i32, i32* %4, align 4
  %51 = mul nsw i32 %50, 10
  %52 = add nsw i32 %49, %51
  %53 = load i32, i32* %5, align 4
  %54 = add nsw i32 %52, %53
  store i32 %54, i32* %8, align 4
  %55 = load i32, i32* %8, align 4
  %56 = call i32 (i8*, ...) @printf(i8* getelementptr inbounds ([6 x i8], [6 x i8]* @.str.3, i64 0, i64 0), i32 %55)
  br label %57

57:                                               ; preds = %47, %46
  br label %71

58:                                               ; preds = %26
  %59 = load i32, i32* %3, align 4
  %60 = mul nsw i32 %59, 1000
  %61 = load i32, i32* %4, align 4
  %62 = mul nsw i32 %61, 100
  %63 = add nsw i32 %60, %62
  %64 = load i32, i32* %5, align 4
  %65 = mul nsw i32 %64, 10
  %66 = add nsw i32 %63, %65
  %67 = load i32, i32* %6, align 4
  %68 = add nsw i32 %66, %67
  store i32 %68, i32* %8, align 4
  %69 = load i32, i32* %8, align 4
  %70 = call i32 (i8*, ...) @printf(i8* getelementptr inbounds ([6 x i8], [6 x i8]* @.str.4, i64 0, i64 0), i32 %69)
  br label %71

71:                                               ; preds = %58, %57
  br label %88

72:                                               ; preds = %0
  %73 = load i32, i32* %3, align 4
  %74 = mul nsw i32 %73, 10000
  %75 = load i32, i32* %4, align 4
  %76 = mul nsw i32 %75, 1000
  %77 = add nsw i32 %74, %76
  %78 = load i32, i32* %5, align 4
  %79 = mul nsw i32 %78, 100
  %80 = add nsw i32 %77, %79
  %81 = load i32, i32* %6, align 4
  %82 = mul nsw i32 %81, 10
  %83 = add nsw i32 %80, %82
  %84 = load i32, i32* %7, align 4
  %85 = add nsw i32 %83, %84
  store i32 %85, i32* %8, align 4
  %86 = load i32, i32* %8, align 4
  %87 = call i32 (i8*, ...) @printf(i8* getelementptr inbounds ([6 x i8], [6 x i8]* @.str.5, i64 0, i64 0), i32 %86)
  br label %88

88:                                               ; preds = %72, %71
  ret i32 0
}

declare dso_local i32 @__isoc99_scanf(i8*, ...) #1

declare dso_local i32 @printf(i8*, ...) #1


!llvm.module.flags = !{!0}
!llvm.ident = !{!1}

!0 = !{i32 1, !"wchar_size", i32 4}
!1 = !{!"clang version 10.0.0-4ubuntu1 "}
